; Function Attrs: mustprogress nounwind uwtable
define dso_local void @_ZN2EA4StdC15CallbackManagerD0Ev(ptr noundef nonnull align 8 dereferenceable(296) %this) unnamed_addr #2 align 2 personality ptr @__gxx_personality_v0 {
entry:
  store ptr getelementptr inbounds ({ [9 x ptr] }, ptr @_ZTVN2EA4StdC15CallbackManagerE, i64 0, i32 0, i64 2), ptr %this, align 8
  invoke void @_ZN2EA4StdC15CallbackManager8ShutdownEv(ptr noundef nonnull align 8 dereferenceable(296) %this)
          to label %invoke.cont.i unwind label %terminate.lpad.i

invoke.cont.i:                                    ; preds = %entry
  %mThread.i = getelementptr inbounds i8, ptr %this, i64 232
  tail call void @_ZN2EA6Thread6ThreadD1Ev(ptr noundef nonnull align 8 dereferenceable(8) %mThread.i) #14
  %mMutex.i = getelementptr inbounds i8, ptr %this, i64 184
  tail call void @_ZN2EA6Thread5MutexD1Ev(ptr noundef nonnull align 8 dereferenceable(48) %mMutex.i) #14
  %mCallbackArray.i = getelementptr inbounds i8, ptr %this, i64 8
  %0 = load ptr, ptr %mCallbackArray.i, align 8
  %mLocalBuffer.i.i = getelementptr inbounds i8, ptr %this, i64 32
  %cmp.not.i.i = icmp eq ptr %0, %mLocalBuffer.i.i
  %isnull.i.i = icmp eq ptr %0, null
  %or.cond.i.i = or i1 %cmp.not.i.i, %isnull.i.i
  br i1 %or.cond.i.i, label %_ZN2EA4StdC15CallbackManagerD2Ev.exit, label %delete.notnull.i.i

delete.notnull.i.i:                               ; preds = %invoke.cont.i
  tail call void @_ZdaPv(ptr noundef nonnull %0) #19
  br label %_ZN2EA4StdC15CallbackManagerD2Ev.exit

terminate.lpad.i:                                 ; preds = %entry
  %1 = landingpad { ptr, i32 }
          catch ptr null
  %2 = extractvalue { ptr, i32 } %1, 0
  tail call void @__clang_call_terminate(ptr %2) #18
  unreachable

_ZN2EA4StdC15CallbackManagerD2Ev.exit:            ; preds = %invoke.cont.i, %delete.notnull.i.i
  tail call void @_ZdlPv(ptr noundef nonnull %this) #19
  ret void
}